; Function Attrs: mustprogress nofree nosync nounwind memory(readwrite, inaccessiblemem: none) uwtable
define void @ggml_backend_buffer_set_usage(ptr noundef captures(none) initializes((96, 100)) %0, i32 noundef %1) local_unnamed_addr #9 {
  %3 = getelementptr inbounds nuw i8, ptr %0, i64 96
  store i32 %1, ptr %3, align 8, !tbaa !21
  %4 = load ptr, ptr %0, align 8, !tbaa !27
  %5 = icmp eq ptr %4, @_ZL37ggml_backend_multi_buffer_free_bufferP19ggml_backend_buffer
  br i1 %5, label %6, label %ggml_backend_multi_buffer_set_usage.exit

6:                                                ; preds = %2
  %7 = getelementptr inbounds nuw i8, ptr %0, i64 80
  %8 = load ptr, ptr %7, align 8, !tbaa !19
  %9 = getelementptr inbounds nuw i8, ptr %8, i64 8
  %10 = load i64, ptr %9, align 8, !tbaa !31
  %.not = icmp eq i64 %10, 0
  br i1 %.not, label %ggml_backend_multi_buffer_set_usage.exit, label %.lr.ph

.lr.ph:                                           ; preds = %6, %.lr.ph
  %.0.i4 = phi i64 [ %14, %.lr.ph ], [ 0, %6 ]
  %11 = load ptr, ptr %8, align 8, !tbaa !35
  %12 = getelementptr inbounds nuw ptr, ptr %11, i64 %.0.i4
  %13 = load ptr, ptr %12, align 8, !tbaa !36
  tail call void @ggml_backend_buffer_set_usage(ptr noundef %13, i32 noundef %1)
  %14 = add nuw i64 %.0.i4, 1
  %15 = load i64, ptr %9, align 8, !tbaa !31
  %16 = icmp ult i64 %14, %15
  br i1 %16, label %.lr.ph, label %ggml_backend_multi_buffer_set_usage.exit, !llvm.loop !38

ggml_backend_multi_buffer_set_usage.exit:         ; preds = %.lr.ph, %6, %2
  ret void
}